; Function Attrs: nounwind uwtable
define dso_local i64 @xidsend(ptr noundef readonly captures(none) %0) local_unnamed_addr #0 {
  %2 = alloca %struct.StringInfoData, align 8
  %3 = getelementptr inbounds nuw i8, ptr %0, i64 32
  %4 = load i64, ptr %3, align 8
  %5 = trunc i64 %4 to i32
  call void @llvm.lifetime.start.p0(i64 24, ptr nonnull %2) #7
  call void @pq_begintypsend(ptr noundef nonnull %2) #7
  call void @enlargeStringInfo(ptr noundef nonnull %2, i32 noundef 4) #7
  call void @llvm.experimental.noalias.scope.decl(metadata !4)
  %6 = call i32 @llvm.bswap.i32(i32 %5)
  %7 = load ptr, ptr %2, align 8, !alias.scope !4
  %8 = getelementptr inbounds nuw i8, ptr %2, i64 8
  %9 = load i32, ptr %8, align 8, !alias.scope !4
  %10 = sext i32 %9 to i64
  %11 = getelementptr inbounds i8, ptr %7, i64 %10
  store i32 %6, ptr %11, align 1, !noalias !4
  %12 = add i32 %9, 4
  store i32 %12, ptr %8, align 8, !alias.scope !4
  %13 = call ptr @pq_endtypsend(ptr noundef nonnull %2) #7
  %14 = ptrtoint ptr %13 to i64
  call void @llvm.lifetime.end.p0(i64 24, ptr nonnull %2) #7
  ret i64 %14
}